; Function Attrs: mustprogress nounwind uwtable
define hidden void @_ZN3sls10smt_solverD2Ev(ptr noundef nonnull align 8 dereferenceable(488) %0) unnamed_addr #5 align 2 personality ptr @__gxx_personality_v0 {
  %2 = getelementptr inbounds nuw i8, ptr %0, i64 472
  %3 = getelementptr inbounds nuw i8, ptr %0, i64 480
  %4 = load ptr, ptr %3, align 8, !tbaa !148
  %.not.i.i.i = icmp eq ptr %4, null
  br i1 %.not.i.i.i, label %_ZN6vectorISt4pairIPKcdELb0EjED2Ev.exit.i, label %5

5:                                                ; preds = %1
  %6 = getelementptr inbounds i8, ptr %4, i64 -8
  invoke void @_ZN6memory10deallocateEPv(ptr noundef nonnull %6)
          to label %_ZN6vectorISt4pairIPKcdELb0EjED2Ev.exit.i unwind label %7

7:                                                ; preds = %5
  %8 = landingpad { ptr, i32 }
          catch ptr null
  %9 = extractvalue { ptr, i32 } %8, 0
  tail call void @__clang_call_terminate(ptr %9) #22
  unreachable

_ZN6vectorISt4pairIPKcdELb0EjED2Ev.exit.i:        ; preds = %5, %1
  %10 = load ptr, ptr %2, align 8, !tbaa !149
  %.not.i.i1.i = icmp eq ptr %10, null
  br i1 %.not.i.i1.i, label %_ZN10statisticsD2Ev.exit, label %11

11:                                               ; preds = %_ZN6vectorISt4pairIPKcdELb0EjED2Ev.exit.i
  %12 = getelementptr inbounds i8, ptr %10, i64 -8
  invoke void @_ZN6memory10deallocateEPv(ptr noundef nonnull %12)
          to label %_ZN10statisticsD2Ev.exit unwind label %13

13:                                               ; preds = %11
  %14 = landingpad { ptr, i32 }
          catch ptr null
  %15 = extractvalue { ptr, i32 } %14, 0
  tail call void @__clang_call_terminate(ptr %15) #22
  unreachable

_ZN10statisticsD2Ev.exit:                         ; preds = %_ZN6vectorISt4pairIPKcdELb0EjED2Ev.exit.i, %11
  %16 = getelementptr inbounds nuw i8, ptr %0, i64 456
  %17 = getelementptr inbounds nuw i8, ptr %0, i64 464
  %18 = load ptr, ptr %17, align 8, !tbaa !150
  %19 = icmp eq ptr %18, null
  br i1 %19, label %_ZN15ref_vector_coreI4expr19ref_manager_wrapperIS0_11ast_managerEED2Ev.exit, label %_ZNK6vectorIP4exprLb0EjE4sizeEv.exit.i

_ZNK6vectorIP4exprLb0EjE4sizeEv.exit.i:           ; preds = %_ZN10statisticsD2Ev.exit
  %20 = getelementptr inbounds i8, ptr %18, i64 -4
  %21 = load i32, ptr %20, align 4, !tbaa !151
  %22 = zext i32 %21 to i64
  %23 = getelementptr inbounds nuw ptr, ptr %18, i64 %22
  %.not.i = icmp eq i32 %21, 0
  br i1 %.not.i, label %_ZN15ref_vector_coreI4expr19ref_manager_wrapperIS0_11ast_managerEE13dec_range_refEPKPS0_S7_.exit.thread4.i, label %.lr.ph.i.i

.lr.ph.i.i:                                       ; preds = %_ZNK6vectorIP4exprLb0EjE4sizeEv.exit.i, %_ZN15ref_vector_coreI4expr19ref_manager_wrapperIS0_11ast_managerEE7dec_refEPS0_.exit.i.i
  %.06.i.i = phi ptr [ %32, %_ZN15ref_vector_coreI4expr19ref_manager_wrapperIS0_11ast_managerEE7dec_refEPS0_.exit.i.i ], [ %18, %_ZNK6vectorIP4exprLb0EjE4sizeEv.exit.i ]
  %24 = load ptr, ptr %.06.i.i, align 8, !tbaa !152
  %25 = load ptr, ptr %16, align 8, !tbaa !153
  %.not.i.i.i.i.i = icmp eq ptr %24, null
  br i1 %.not.i.i.i.i.i, label %_ZN15ref_vector_coreI4expr19ref_manager_wrapperIS0_11ast_managerEE7dec_refEPS0_.exit.i.i, label %26

26:                                               ; preds = %.lr.ph.i.i
  %27 = getelementptr inbounds nuw i8, ptr %24, i64 8
  %28 = load i32, ptr %27, align 4, !tbaa !154
  %29 = add i32 %28, -1
  store i32 %29, ptr %27, align 4, !tbaa !154
  %30 = icmp eq i32 %29, 0
  br i1 %30, label %31, label %_ZN15ref_vector_coreI4expr19ref_manager_wrapperIS0_11ast_managerEE7dec_refEPS0_.exit.i.i

31:                                               ; preds = %26
  invoke void @_ZN11ast_manager11delete_nodeEP3ast(ptr noundef nonnull align 8 dereferenceable(976) %25, ptr noundef nonnull %24)
          to label %_ZN15ref_vector_coreI4expr19ref_manager_wrapperIS0_11ast_managerEE7dec_refEPS0_.exit.i.i unwind label %39

_ZN15ref_vector_coreI4expr19ref_manager_wrapperIS0_11ast_managerEE7dec_refEPS0_.exit.i.i: ; preds = %31, %26, %.lr.ph.i.i
  %32 = getelementptr inbounds nuw i8, ptr %.06.i.i, i64 8
  %33 = icmp ult ptr %32, %23
  br i1 %33, label %.lr.ph.i.i, label %_ZN15ref_vector_coreI4expr19ref_manager_wrapperIS0_11ast_managerEE13dec_range_refEPKPS0_S7_.exit.i, !llvm.loop !156

_ZN15ref_vector_coreI4expr19ref_manager_wrapperIS0_11ast_managerEE13dec_range_refEPKPS0_S7_.exit.i: ; preds = %_ZN15ref_vector_coreI4expr19ref_manager_wrapperIS0_11ast_managerEE7dec_refEPS0_.exit.i.i
  %.pre.i = load ptr, ptr %17, align 8, !tbaa !150
  %.not.i.i.i1 = icmp eq ptr %.pre.i, null
  br i1 %.not.i.i.i1, label %_ZN15ref_vector_coreI4expr19ref_manager_wrapperIS0_11ast_managerEED2Ev.exit, label %_ZN15ref_vector_coreI4expr19ref_manager_wrapperIS0_11ast_managerEE13dec_range_refEPKPS0_S7_.exit.thread4.i

_ZN15ref_vector_coreI4expr19ref_manager_wrapperIS0_11ast_managerEE13dec_range_refEPKPS0_S7_.exit.thread4.i: ; preds = %_ZN15ref_vector_coreI4expr19ref_manager_wrapperIS0_11ast_managerEE13dec_range_refEPKPS0_S7_.exit.i, %_ZNK6vectorIP4exprLb0EjE4sizeEv.exit.i
  %34 = phi ptr [ %.pre.i, %_ZN15ref_vector_coreI4expr19ref_manager_wrapperIS0_11ast_managerEE13dec_range_refEPKPS0_S7_.exit.i ], [ %18, %_ZNK6vectorIP4exprLb0EjE4sizeEv.exit.i ]
  %35 = getelementptr inbounds i8, ptr %34, i64 -8
  invoke void @_ZN6memory10deallocateEPv(ptr noundef nonnull %35)
          to label %_ZN15ref_vector_coreI4expr19ref_manager_wrapperIS0_11ast_managerEED2Ev.exit unwind label %36

36:                                               ; preds = %_ZN15ref_vector_coreI4expr19ref_manager_wrapperIS0_11ast_managerEE13dec_range_refEPKPS0_S7_.exit.thread4.i
  %37 = landingpad { ptr, i32 }
          catch ptr null
  %38 = extractvalue { ptr, i32 } %37, 0
  tail call void @__clang_call_terminate(ptr %38) #22
  unreachable

39:                                               ; preds = %31
  %40 = landingpad { ptr, i32 }
          catch ptr null
  %41 = extractvalue { ptr, i32 } %40, 0
  tail call void @__clang_call_terminate(ptr %41) #22
  unreachable

_ZN15ref_vector_coreI4expr19ref_manager_wrapperIS0_11ast_managerEED2Ev.exit: ; preds = %_ZN10statisticsD2Ev.exit, %_ZN15ref_vector_coreI4expr19ref_manager_wrapperIS0_11ast_managerEE13dec_range_refEPKPS0_S7_.exit.i, %_ZN15ref_vector_coreI4expr19ref_manager_wrapperIS0_11ast_managerEE13dec_range_refEPKPS0_S7_.exit.thread4.i
  %42 = getelementptr inbounds nuw i8, ptr %0, i64 8
  tail call void @_ZN3sat4ddfwD1Ev(ptr noundef nonnull align 8 dereferenceable(434) %42) #21
  ret void
}